target datalayout = "e-m:e-p270:32:32-p271:32:32-p272:64:64-i64:64-i128:128-f80:128-n8:16:32:64-S128"
target triple = "x86_64-pc-linux-gnu"

; Function Attrs: nounwind uwtable
define i32 @get_100_bits_from_table(ptr noundef %0, ptr noundef %1) #0 {
  %3 = alloca ptr, align 8
  %4 = alloca ptr, align 8
  %5 = alloca i32, align 4
  store ptr %0, ptr %3, align 8
  store ptr %1, ptr %4, align 8
  store i32 1, ptr %5, align 4
  br label %6

6:                                                ; preds = %9, %2
  %7 = load i32, ptr %5, align 4
  %8 = icmp ult i32 %7, 256
  br i1 %8, label %9, label %19

9:                                                ; preds = %6
  %10 = load i32, ptr %5, align 4
  %11 = mul i32 %10, 2
  %12 = load ptr, ptr %3, align 8
  %13 = load i32, ptr %5, align 4
  %14 = zext i32 %13 to i64
  %15 = getelementptr inbounds i16, ptr %12, i64 %14
  %16 = load ptr, ptr %4, align 8
  %17 = call i32 @getbit_from_table(ptr noundef %15, ptr noundef %16)
  %18 = or i32 %11, %17
  store i32 %18, ptr %5, align 4
  br label %6

19:                                               ; preds = %6
  %20 = load i32, ptr %5, align 4
  %21 = and i32 %20, 255
  ret i32 %21
}