; Function Attrs: nofree norecurse nosync nounwind memory(read, argmem: readwrite, inaccessiblemem: none) uwtable
define i32 @get_100_bits_from_table(ptr noundef %0, ptr nocapture noundef %1) local_unnamed_addr #4 {
  br label %3

3:                                                ; preds = %2, %3
  %.05 = phi i32 [ 1, %2 ], [ %8, %3 ]
  %4 = shl nuw nsw i32 %.05, 1
  %5 = zext nneg i32 %.05 to i64
  %6 = getelementptr inbounds i16, ptr %0, i64 %5
  %7 = tail call i32 @getbit_from_table(ptr noundef %6, ptr noundef %1), !range !5
  %8 = or i32 %7, %4
  %9 = icmp ult i32 %8, 256
  br i1 %9, label %3, label %10

10:                                               ; preds = %3
  %11 = and i32 %8, 255
  ret i32 %11
}